target datalayout = "e-m:e-p270:32:32-p271:32:32-p272:64:64-i64:64-i128:128-f80:128-n8:16:32:64-S128"
target triple = "x86_64-pc-linux-gnu"

%class.btSequentialImpulseConstraintSolver = type { %class.btConstraintSolver, %class.btAlignedObjectArray, %class.btAlignedObjectArray.0, %class.btAlignedObjectArray.0, %class.btAlignedObjectArray.0, %class.btAlignedObjectArray.0, %class.btAlignedObjectArray.2, %class.btAlignedObjectArray.2, %class.btAlignedObjectArray.2, %class.btAlignedObjectArray.4, i32, i32, %class.btAlignedObjectArray.2, ptr, ptr, ptr, i32, float, i64, %struct.btSolverAnalyticsData }
%class.btConstraintSolver = type { ptr }
%class.btAlignedObjectArray = type <{ [4 x i8], i32, i32, [4 x i8], ptr, i8, [7 x i8] }>
%class.btAlignedObjectArray.0 = type <{ [4 x i8], i32, i32, [4 x i8], ptr, i8, [7 x i8] }>
%class.btAlignedObjectArray.4 = type <{ [4 x i8], i32, i32, [4 x i8], ptr, i8, [7 x i8] }>
%struct.btSolverAnalyticsData = type { i32, i32, i32, i32, i32, double }
%class.btAlignedObjectArray.2 = type <{ [4 x i8], i32, i32, [4 x i8], ptr, i8, [7 x i8] }>
%class.btVector3 = type { [4 x float] }
%struct.btSolverConstraint = type { %class.btVector3, %class.btVector3, %class.btVector3, %class.btVector3, %class.btVector3, %class.btVector3, float, float, float, float, float, float, float, float, float, %union.anon.12, i32, i32, i32, i32 }
%union.anon.12 = type { ptr }
%struct.btSolverBody = type { %class.btTransform, %class.btVector3, %class.btVector3, %class.btVector3, %class.btVector3, %class.btVector3, %class.btVector3, %class.btVector3, %class.btVector3, %class.btVector3, %class.btVector3, %class.btVector3, ptr }
%class.btTransform = type { %class.btMatrix3x3, %class.btVector3 }
%class.btMatrix3x3 = type { [3 x %class.btVector3] }

; Function Attrs: mustprogress uwtable
define linkonce_odr dso_local noundef float @_ZN35btSequentialImpulseConstraintSolver30resolveSplitPenetrationImpulseER12btSolverBodyS1_RK18btSolverConstraint(ptr noundef nonnull align 8 dereferenceable(408) %0, ptr noundef nonnull align 8 dereferenceable(248) %1, ptr noundef nonnull align 8 dereferenceable(248) %2, ptr noundef nonnull align 8 dereferenceable(160) %3) #2 comdat align 2 {
  %5 = alloca ptr, align 8
  %6 = alloca ptr, align 8
  %7 = alloca ptr, align 8
  %8 = alloca ptr, align 8
  store ptr %0, ptr %5, align 8, !tbaa !256
  store ptr %1, ptr %6, align 8, !tbaa !73
  store ptr %2, ptr %7, align 8, !tbaa !73
  store ptr %3, ptr %8, align 8, !tbaa !68
  %9 = load ptr, ptr %5, align 8
  %10 = getelementptr inbounds nuw %class.btSequentialImpulseConstraintSolver, ptr %9, i32 0, i32 15
  %11 = load ptr, ptr %10, align 8, !tbaa !258
  %12 = load ptr, ptr %6, align 8, !tbaa !73
  %13 = load ptr, ptr %7, align 8, !tbaa !73
  %14 = load ptr, ptr %8, align 8, !tbaa !68
  %15 = call noundef float %11(ptr noundef nonnull align 8 dereferenceable(248) %12, ptr noundef nonnull align 8 dereferenceable(248) %13, ptr noundef nonnull align 8 dereferenceable(160) %14)
  ret float %15
}

; Function Attrs: inlinehint mustprogress nounwind uwtable
define linkonce_odr dso_local noundef nonnull align 8 dereferenceable(248) ptr @_ZN20btAlignedObjectArrayI12btSolverBodyEixEi(ptr noundef nonnull align 8 dereferenceable(25) %0, i32 noundef %1) #4 comdat align 2 {
  %3 = alloca ptr, align 8
  %4 = alloca i32, align 4
  store ptr %0, ptr %3, align 8, !tbaa !101
  store i32 %1, ptr %4, align 4, !tbaa !9
  %5 = load ptr, ptr %3, align 8
  %6 = getelementptr inbounds nuw %class.btAlignedObjectArray, ptr %5, i32 0, i32 4
  %7 = load ptr, ptr %6, align 8, !tbaa !103
  %8 = load i32, ptr %4, align 4, !tbaa !9
  %9 = sext i32 %8 to i64
  %10 = getelementptr inbounds %struct.btSolverBody, ptr %7, i64 %9
  ret ptr %10
}

; Function Attrs: inlinehint mustprogress nounwind uwtable
define linkonce_odr dso_local noundef nonnull align 8 dereferenceable(160) ptr @_ZN20btAlignedObjectArrayI18btSolverConstraintEixEi(ptr noundef nonnull align 8 dereferenceable(25) %0, i32 noundef %1) #4 comdat align 2 {
  %3 = alloca ptr, align 8
  %4 = alloca i32, align 4
  store ptr %0, ptr %3, align 8, !tbaa !98
  store i32 %1, ptr %4, align 4, !tbaa !9
  %5 = load ptr, ptr %3, align 8
  %6 = getelementptr inbounds nuw %class.btAlignedObjectArray.0, ptr %5, i32 0, i32 4
  %7 = load ptr, ptr %6, align 8, !tbaa !100
  %8 = load i32, ptr %4, align 4, !tbaa !9
  %9 = sext i32 %8 to i64
  %10 = getelementptr inbounds %struct.btSolverConstraint, ptr %7, i64 %9
  ret ptr %10
}

; Function Attrs: inlinehint mustprogress nounwind uwtable
define linkonce_odr dso_local noundef nonnull align 4 dereferenceable(4) ptr @_ZNK20btAlignedObjectArrayIiEixEi(ptr noundef nonnull align 8 dereferenceable(25) %0, i32 noundef %1) #4 comdat align 2 {
  %3 = alloca ptr, align 8
  %4 = alloca i32, align 4
  store ptr %0, ptr %3, align 8, !tbaa !56
  store i32 %1, ptr %4, align 4, !tbaa !9
  %5 = load ptr, ptr %3, align 8
  %6 = getelementptr inbounds nuw %class.btAlignedObjectArray.2, ptr %5, i32 0, i32 4
  %7 = load ptr, ptr %6, align 8, !tbaa !106
  %8 = load i32, ptr %4, align 4, !tbaa !9
  %9 = sext i32 %8 to i64
  %10 = getelementptr inbounds i32, ptr %7, i64 %9
  ret ptr %10
}

; Function Attrs: mustprogress uwtable
define dso_local noundef float @_ZN37btSequentialImpulseConstraintSolverMt56resolveMultipleContactSplitPenetrationImpulseConstraintsERK20btAlignedObjectArrayIiEii(ptr noundef nonnull align 8 dereferenceable(920) %0, ptr noundef nonnull align 8 dereferenceable(25) %1, i32 noundef %2, i32 noundef %3) #2 align 2 {
  %5 = alloca ptr, align 8
  %6 = alloca ptr, align 8
  %7 = alloca i32, align 4
  %8 = alloca i32, align 4
  %9 = alloca float, align 4
  %10 = alloca i32, align 4
  %11 = alloca i32, align 4
  %12 = alloca ptr, align 8
  %13 = alloca ptr, align 8
  %14 = alloca ptr, align 8
  %15 = alloca float, align 4
  store ptr %0, ptr %5, align 8, !tbaa !12
  store ptr %1, ptr %6, align 8, !tbaa !56
  store i32 %2, ptr %7, align 4, !tbaa !9
  store i32 %3, ptr %8, align 4, !tbaa !9
  %16 = load ptr, ptr %5, align 8
  call void @llvm.lifetime.start.p0(i64 4, ptr %9) #16
  store float 0.000000e+00, ptr %9, align 4, !tbaa !85
  call void @llvm.lifetime.start.p0(i64 4, ptr %10) #16
  %17 = load i32, ptr %7, align 4, !tbaa !9
  store i32 %17, ptr %10, align 4, !tbaa !9
  br label %18

18:                                               ; preds = %49, %4
  %19 = load i32, ptr %10, align 4, !tbaa !9
  %20 = load i32, ptr %8, align 4, !tbaa !9
  %21 = icmp slt i32 %19, %20
  br i1 %21, label %23, label %22

22:                                               ; preds = %18
  call void @llvm.lifetime.end.p0(i64 4, ptr %10) #16
  br label %52

23:                                               ; preds = %18
  call void @llvm.lifetime.start.p0(i64 4, ptr %11) #16
  %24 = load ptr, ptr %6, align 8, !tbaa !56
  %25 = load i32, ptr %10, align 4, !tbaa !9
  %26 = call noundef nonnull align 4 dereferenceable(4) ptr @_ZNK20btAlignedObjectArrayIiEixEi(ptr noundef nonnull align 8 dereferenceable(25) %24, i32 noundef %25)
  %27 = load i32, ptr %26, align 4, !tbaa !9
  store i32 %27, ptr %11, align 4, !tbaa !9
  call void @llvm.lifetime.start.p0(i64 8, ptr %12) #16
  %28 = getelementptr inbounds nuw %class.btSequentialImpulseConstraintSolver, ptr %16, i32 0, i32 2
  %29 = load i32, ptr %11, align 4, !tbaa !9
  %30 = call noundef nonnull align 8 dereferenceable(160) ptr @_ZN20btAlignedObjectArrayI18btSolverConstraintEixEi(ptr noundef nonnull align 8 dereferenceable(25) %28, i32 noundef %29)
  store ptr %30, ptr %12, align 8, !tbaa !68
  call void @llvm.lifetime.start.p0(i64 8, ptr %13) #16
  %31 = getelementptr inbounds nuw %class.btSequentialImpulseConstraintSolver, ptr %16, i32 0, i32 1
  %32 = load ptr, ptr %12, align 8, !tbaa !68
  %33 = getelementptr inbounds nuw %struct.btSolverConstraint, ptr %32, i32 0, i32 18
  %34 = load i32, ptr %33, align 8, !tbaa !69
  %35 = call noundef nonnull align 8 dereferenceable(248) ptr @_ZN20btAlignedObjectArrayI12btSolverBodyEixEi(ptr noundef nonnull align 8 dereferenceable(25) %31, i32 noundef %34)
  store ptr %35, ptr %13, align 8, !tbaa !73
  call void @llvm.lifetime.start.p0(i64 8, ptr %14) #16
  %36 = getelementptr inbounds nuw %class.btSequentialImpulseConstraintSolver, ptr %16, i32 0, i32 1
  %37 = load ptr, ptr %12, align 8, !tbaa !68
  %38 = getelementptr inbounds nuw %struct.btSolverConstraint, ptr %37, i32 0, i32 19
  %39 = load i32, ptr %38, align 4, !tbaa !72
  %40 = call noundef nonnull align 8 dereferenceable(248) ptr @_ZN20btAlignedObjectArrayI12btSolverBodyEixEi(ptr noundef nonnull align 8 dereferenceable(25) %36, i32 noundef %39)
  store ptr %40, ptr %14, align 8, !tbaa !73
  call void @llvm.lifetime.start.p0(i64 4, ptr %15) #16
  %41 = load ptr, ptr %13, align 8, !tbaa !73
  %42 = load ptr, ptr %14, align 8, !tbaa !73
  %43 = load ptr, ptr %12, align 8, !tbaa !68
  %44 = call noundef float @_ZN35btSequentialImpulseConstraintSolver30resolveSplitPenetrationImpulseER12btSolverBodyS1_RK18btSolverConstraint(ptr noundef nonnull align 8 dereferenceable(408) %16, ptr noundef nonnull align 8 dereferenceable(248) %41, ptr noundef nonnull align 8 dereferenceable(248) %42, ptr noundef nonnull align 8 dereferenceable(160) %43)
  store float %44, ptr %15, align 4, !tbaa !85
  %45 = load float, ptr %15, align 4, !tbaa !85
  %46 = load float, ptr %15, align 4, !tbaa !85
  %47 = load float, ptr %9, align 4, !tbaa !85
  %48 = call float @llvm.fmuladd.f32(float %45, float %46, float %47)
  store float %48, ptr %9, align 4, !tbaa !85
  call void @llvm.lifetime.end.p0(i64 4, ptr %15) #16
  call void @llvm.lifetime.end.p0(i64 8, ptr %14) #16
  call void @llvm.lifetime.end.p0(i64 8, ptr %13) #16
  call void @llvm.lifetime.end.p0(i64 8, ptr %12) #16
  call void @llvm.lifetime.end.p0(i64 4, ptr %11) #16
  br label %49

49:                                               ; preds = %23
  %50 = load i32, ptr %10, align 4, !tbaa !9
  %51 = add nsw i32 %50, 1
  store i32 %51, ptr %10, align 4, !tbaa !9
  br label %18, !llvm.loop !255

52:                                               ; preds = %22
  %53 = load float, ptr %9, align 4, !tbaa !85
  call void @llvm.lifetime.end.p0(i64 4, ptr %9) #16
  ret float %53
}