; Function Attrs: mustprogress uwtable
define dso_local noundef float @_ZN37btSequentialImpulseConstraintSolverMt56resolveMultipleContactSplitPenetrationImpulseConstraintsERK20btAlignedObjectArrayIiEii(ptr noundef nonnull readonly align 8 captures(none) dereferenceable(920) %0, ptr noundef nonnull readonly align 8 captures(none) dereferenceable(25) %1, i32 noundef %2, i32 noundef %3) local_unnamed_addr #0 align 2 {
  %5 = icmp slt i32 %2, %3
  br i1 %5, label %.lr.ph, label %._crit_edge

.lr.ph:                                           ; preds = %4
  %6 = getelementptr inbounds nuw i8, ptr %1, i64 16
  %7 = getelementptr inbounds nuw i8, ptr %0, i64 56
  %8 = getelementptr inbounds nuw i8, ptr %0, i64 24
  %9 = getelementptr inbounds nuw i8, ptr %0, i64 352
  %10 = sext i32 %2 to i64
  br label %11

._crit_edge:                                      ; preds = %11, %4
  %.0.lcssa = phi float [ 0.000000e+00, %4 ], [ %29, %11 ]
  ret float %.0.lcssa

11:                                               ; preds = %.lr.ph, %11
  %indvars.iv = phi i64 [ %10, %.lr.ph ], [ %indvars.iv.next, %11 ]
  %.018 = phi float [ 0.000000e+00, %.lr.ph ], [ %29, %11 ]
  %12 = load ptr, ptr %6, align 8, !tbaa !15
  %13 = getelementptr inbounds i32, ptr %12, i64 %indvars.iv
  %14 = load i32, ptr %13, align 4, !tbaa !67
  %15 = load ptr, ptr %7, align 8, !tbaa !68
  %16 = sext i32 %14 to i64
  %17 = getelementptr inbounds %struct.btSolverConstraint, ptr %15, i64 %16
  %18 = getelementptr inbounds nuw i8, ptr %17, i64 152
  %19 = load i32, ptr %18, align 8, !tbaa !69
  %20 = load ptr, ptr %8, align 8, !tbaa !73
  %21 = sext i32 %19 to i64
  %22 = getelementptr inbounds %struct.btSolverBody, ptr %20, i64 %21
  %23 = getelementptr inbounds nuw i8, ptr %17, i64 156
  %24 = load i32, ptr %23, align 4, !tbaa !72
  %25 = sext i32 %24 to i64
  %26 = getelementptr inbounds %struct.btSolverBody, ptr %20, i64 %25
  %27 = load ptr, ptr %9, align 8, !tbaa !221
  %28 = tail call noundef float %27(ptr noundef nonnull align 8 dereferenceable(248) %22, ptr noundef nonnull align 8 dereferenceable(248) %26, ptr noundef nonnull align 8 dereferenceable(160) %17)
  %29 = tail call float @llvm.fmuladd.f32(float %28, float %28, float %.018)
  %indvars.iv.next = add nsw i64 %indvars.iv, 1
  %lftr.wideiv = trunc i64 %indvars.iv.next to i32
  %exitcond.not = icmp eq i32 %3, %lftr.wideiv
  br i1 %exitcond.not, label %._crit_edge, label %11, !llvm.loop !222
}